; Function Attrs: nounwind uwtable
define internal void @pov_begin_node(ptr noundef %0) #0 {
  %2 = getelementptr inbounds nuw i8, ptr %0, i64 32
  %3 = load ptr, ptr %2, align 8, !tbaa !3
  %4 = getelementptr inbounds nuw i8, ptr %3, i64 16
  %5 = load ptr, ptr %4, align 8, !tbaa !30
  %6 = tail call ptr @agnameof(ptr noundef %5) #18
  tail call void (ptr, ptr, ...) @gvprintf(ptr noundef %0, ptr noundef nonnull @.str.22, ptr noundef %6) #18
  ret void
}